target datalayout = "e-m:e-p270:32:32-p271:32:32-p272:64:64-i64:64-i128:128-f80:128-n8:16:32:64-S128"
target triple = "x86_64-pc-linux-gnu"

%struct._zend_array = type { %struct._zend_refcounted_h, %union.anon.4, i32, %union.anon.6, i32, i32, i32, i32, i64, ptr }
%struct._zend_refcounted_h = type { i32, %union.anon }
%union.anon = type { i32 }
%union.anon.4 = type { i32 }
%union.anon.6 = type { ptr }
%struct._zend_stack = type { i32, i32, i32, ptr }
%struct._zend_executor_globals = type { %struct._zval_struct, %struct._zval_struct, [32 x ptr], ptr, ptr, %struct._zend_array, %struct._zend_array, ptr, i32, i32, ptr, ptr, ptr, ptr, ptr, ptr, i64, ptr, ptr, i32, i32, i64, i32, i32, i32, i8, i8, %struct.zend_atomic_bool_s, %struct.zend_atomic_bool_s, ptr, i64, ptr, ptr, %struct._zend_array, %struct._zend_array, i32, i8, %struct._zval_struct, %struct._zval_struct, %struct._zend_stack, %struct._zend_stack, %struct._zend_stack, ptr, i32, i32, i64, ptr, ptr, ptr, %struct._zend_objects_store, ptr, ptr, ptr, [3 x %struct._zend_op], ptr, i8, i8, i64, i32, i32, ptr, [16 x %struct._HashTableIterator], ptr, %union._zend_function, %struct._zend_op, %struct._zend_array, i64, %struct.zend_get_gc_buffer, ptr, ptr, ptr, i64, i8, i32, ptr, ptr, i64, %struct._zend_call_stack, i64, i64, [6 x ptr] }
%struct.zend_atomic_bool_s = type { i8 }
%struct._zval_struct = type { %union._zend_value, %union.anon.0, %union.anon.3 }
%union._zend_value = type { i64 }
%union.anon.0 = type { i32 }
%union.anon.3 = type { i32 }
%struct._zend_objects_store = type { ptr, i32, i32, i32 }
%struct._HashTableIterator = type { ptr, i32, i32 }
%union._zend_function = type { %struct._zend_op_array }
%struct._zend_op_array = type { i8, [3 x i8], i32, ptr, ptr, ptr, i32, i32, ptr, ptr, ptr, ptr, i32, i32, i32, i32, ptr, ptr, ptr, ptr, ptr, i32, i32, ptr, ptr, ptr, i32, i32, i32, i32, ptr, ptr, [6 x ptr] }
%struct._zend_op = type { ptr, %union._znode_op, %union._znode_op, %union._znode_op, i32, i32, i8, i8, i8, i8 }
%union._znode_op = type { i32 }
%struct.zend_get_gc_buffer = type { ptr, ptr, ptr }
%struct._zend_call_stack = type { ptr, i64 }

@executor_globals = external global %struct._zend_executor_globals, align 8

; Function Attrs: nounwind uwtable
define void @zend_user_exception_handler() #0 {
  %1 = alloca ptr, align 8
  %2 = alloca ptr, align 8
  %3 = alloca ptr, align 8
  %4 = alloca ptr, align 8
  %5 = alloca %struct._zval_struct, align 8
  %6 = alloca [1 x %struct._zval_struct], align 16
  %7 = alloca %struct._zval_struct, align 8
  %8 = alloca ptr, align 8
  %9 = alloca ptr, align 8
  %10 = alloca ptr, align 8
  %11 = alloca ptr, align 8
  %12 = alloca ptr, align 8
  %13 = alloca i32, align 4
  %14 = load ptr, ptr getelementptr inbounds (%struct._zend_executor_globals, ptr @executor_globals, i32 0, i32 50), align 8
  %15 = call zeroext i1 @zend_is_unwind_exit(ptr noundef %14)
  br i1 %15, label %16, label %17

16:                                               ; preds = %0
  br label %98

17:                                               ; preds = %0
  %18 = load ptr, ptr getelementptr inbounds (%struct._zend_executor_globals, ptr @executor_globals, i32 0, i32 50), align 8
  store ptr %18, ptr %8, align 8
  store ptr null, ptr getelementptr inbounds (%struct._zend_executor_globals, ptr @executor_globals, i32 0, i32 50), align 8
  br label %19

19:                                               ; preds = %17
  %20 = getelementptr inbounds [1 x %struct._zval_struct], ptr %6, i64 0, i64 0
  store ptr %20, ptr %9, align 8
  %21 = load ptr, ptr %8, align 8
  %22 = load ptr, ptr %9, align 8
  %23 = getelementptr inbounds %struct._zval_struct, ptr %22, i32 0, i32 0
  store ptr %21, ptr %23, align 8
  %24 = load ptr, ptr %9, align 8
  %25 = getelementptr inbounds %struct._zval_struct, ptr %24, i32 0, i32 1
  store i32 776, ptr %25, align 8
  br label %26

26:                                               ; preds = %19
  br label %27

27:                                               ; preds = %26
  store ptr %5, ptr %10, align 8
  store ptr getelementptr inbounds (%struct._zend_executor_globals, ptr @executor_globals, i32 0, i32 38), ptr %11, align 8
  %28 = load ptr, ptr %11, align 8
  %29 = getelementptr inbounds %struct._zval_struct, ptr %28, i32 0, i32 0
  %30 = load ptr, ptr %29, align 8
  store ptr %30, ptr %12, align 8
  %31 = load ptr, ptr %11, align 8
  %32 = getelementptr inbounds %struct._zval_struct, ptr %31, i32 0, i32 1
  %33 = load i32, ptr %32, align 8
  store i32 %33, ptr %13, align 4
  br label %34

34:                                               ; preds = %27
  %35 = load ptr, ptr %12, align 8
  %36 = load ptr, ptr %10, align 8
  %37 = getelementptr inbounds %struct._zval_struct, ptr %36, i32 0, i32 0
  store ptr %35, ptr %37, align 8
  %38 = load i32, ptr %13, align 4
  %39 = load ptr, ptr %10, align 8
  %40 = getelementptr inbounds %struct._zval_struct, ptr %39, i32 0, i32 1
  store i32 %38, ptr %40, align 8
  br label %41

41:                                               ; preds = %34
  br label %42

42:                                               ; preds = %41
  br label %43

43:                                               ; preds = %42
  store i32 0, ptr getelementptr inbounds (%struct._zend_executor_globals, ptr @executor_globals, i32 0, i32 38, i32 1), align 8
  br label %44

44:                                               ; preds = %43
  %45 = getelementptr inbounds [1 x %struct._zval_struct], ptr %6, i64 0, i64 0
  %46 = call i32 @_call_user_function_impl(ptr noundef null, ptr noundef %5, ptr noundef %7, i32 noundef 1, ptr noundef %45, ptr noundef null)
  %47 = icmp eq i32 %46, 0
  br i1 %47, label %48, label %95

48:                                               ; preds = %44
  call void @zval_ptr_dtor(ptr noundef %7)
  %49 = load ptr, ptr getelementptr inbounds (%struct._zend_executor_globals, ptr @executor_globals, i32 0, i32 50), align 8
  %50 = icmp ne ptr %49, null
  br i1 %50, label %51, label %73

51:                                               ; preds = %48
  %52 = load ptr, ptr getelementptr inbounds (%struct._zend_executor_globals, ptr @executor_globals, i32 0, i32 50), align 8
  store ptr %52, ptr %3, align 8
  %53 = load ptr, ptr %3, align 8
  store ptr %53, ptr %2, align 8
  %54 = load ptr, ptr %2, align 8
  %55 = load i32, ptr %54, align 4
  %56 = icmp ugt i32 %55, 0
  call void @llvm.assume(i1 %56)
  %57 = load ptr, ptr %2, align 8
  %58 = load i32, ptr %57, align 4
  %59 = add i32 %58, -1
  store i32 %59, ptr %57, align 4
  %60 = icmp eq i32 %59, 0
  br i1 %60, label %61, label %63

61:                                               ; preds = %51
  %62 = load ptr, ptr %3, align 8
  call void @zend_objects_store_del(ptr noundef %62) #18
  br label %72

63:                                               ; preds = %51
  %64 = load ptr, ptr %3, align 8
  %65 = getelementptr inbounds %struct._zend_refcounted_h, ptr %64, i32 0, i32 1
  %66 = load i32, ptr %65, align 4
  %67 = and i32 %66, -1008
  %68 = icmp eq i32 %67, 0
  br i1 %68, label %69, label %71

69:                                               ; preds = %63
  %70 = load ptr, ptr %3, align 8
  call void @gc_possible_root(ptr noundef %70) #18
  br label %71

71:                                               ; preds = %69, %63
  br label %72

72:                                               ; preds = %71, %61
  store ptr null, ptr getelementptr inbounds (%struct._zend_executor_globals, ptr @executor_globals, i32 0, i32 50), align 8
  br label %73

73:                                               ; preds = %72, %48
  %74 = load ptr, ptr %8, align 8
  store ptr %74, ptr %4, align 8
  %75 = load ptr, ptr %4, align 8
  store ptr %75, ptr %1, align 8
  %76 = load ptr, ptr %1, align 8
  %77 = load i32, ptr %76, align 4
  %78 = icmp ugt i32 %77, 0
  call void @llvm.assume(i1 %78)
  %79 = load ptr, ptr %1, align 8
  %80 = load i32, ptr %79, align 4
  %81 = add i32 %80, -1
  store i32 %81, ptr %79, align 4
  %82 = icmp eq i32 %81, 0
  br i1 %82, label %83, label %85

83:                                               ; preds = %73
  %84 = load ptr, ptr %4, align 8
  call void @zend_objects_store_del(ptr noundef %84) #18
  br label %94

85:                                               ; preds = %73
  %86 = load ptr, ptr %4, align 8
  %87 = getelementptr inbounds %struct._zend_refcounted_h, ptr %86, i32 0, i32 1
  %88 = load i32, ptr %87, align 4
  %89 = and i32 %88, -1008
  %90 = icmp eq i32 %89, 0
  br i1 %90, label %91, label %93

91:                                               ; preds = %85
  %92 = load ptr, ptr %4, align 8
  call void @gc_possible_root(ptr noundef %92) #18
  br label %93

93:                                               ; preds = %91, %85
  br label %94

94:                                               ; preds = %93, %83
  br label %97

95:                                               ; preds = %44
  %96 = load ptr, ptr %8, align 8
  store ptr %96, ptr getelementptr inbounds (%struct._zend_executor_globals, ptr @executor_globals, i32 0, i32 50), align 8
  br label %97

97:                                               ; preds = %95, %94
  call void @zval_ptr_dtor(ptr noundef %5)
  br label %98

98:                                               ; preds = %97, %16
  ret void
}