; Function Attrs: nounwind uwtable
define void @zend_user_exception_handler() local_unnamed_addr #0 {
  %1 = alloca %struct._zval_struct, align 8
  %2 = alloca [1 x %struct._zval_struct], align 16
  %3 = alloca %struct._zval_struct, align 8
  %4 = load ptr, ptr getelementptr inbounds (%struct._zend_executor_globals, ptr @executor_globals, i64 0, i32 50), align 8
  %5 = tail call zeroext i1 @zend_is_unwind_exit(ptr noundef %4) #30
  br i1 %5, label %43, label %6

6:                                                ; preds = %0
  %7 = load ptr, ptr getelementptr inbounds (%struct._zend_executor_globals, ptr @executor_globals, i64 0, i32 50), align 8
  store ptr null, ptr getelementptr inbounds (%struct._zend_executor_globals, ptr @executor_globals, i64 0, i32 50), align 8
  store ptr %7, ptr %2, align 16
  %8 = getelementptr inbounds i8, ptr %2, i64 8
  store i32 776, ptr %8, align 8
  %9 = load ptr, ptr getelementptr inbounds (%struct._zend_executor_globals, ptr @executor_globals, i64 0, i32 38), align 8
  %10 = load i32, ptr getelementptr inbounds (%struct._zend_executor_globals, ptr @executor_globals, i64 0, i32 38, i32 1), align 8
  store ptr %9, ptr %1, align 8
  %11 = getelementptr inbounds i8, ptr %1, i64 8
  store i32 %10, ptr %11, align 8
  store i32 0, ptr getelementptr inbounds (%struct._zend_executor_globals, ptr @executor_globals, i64 0, i32 38, i32 1), align 8
  %12 = call i32 @_call_user_function_impl(ptr noundef null, ptr noundef nonnull %1, ptr noundef nonnull %3, i32 noundef 1, ptr noundef nonnull %2, ptr noundef null) #30
  %13 = icmp eq i32 %12, 0
  br i1 %13, label %14, label %41

14:                                               ; preds = %6
  call void @zval_ptr_dtor(ptr noundef nonnull %3) #30
  %15 = load ptr, ptr getelementptr inbounds (%struct._zend_executor_globals, ptr @executor_globals, i64 0, i32 50), align 8
  %.not = icmp eq ptr %15, null
  br i1 %.not, label %29, label %16

16:                                               ; preds = %14
  %17 = load i32, ptr %15, align 4
  %18 = icmp ne i32 %17, 0
  call void @llvm.assume(i1 %18)
  %19 = add i32 %17, -1
  store i32 %19, ptr %15, align 4
  %20 = icmp eq i32 %19, 0
  br i1 %20, label %21, label %22

21:                                               ; preds = %16
  call void @zend_objects_store_del(ptr noundef nonnull %15) #30
  br label %28

22:                                               ; preds = %16
  %23 = getelementptr inbounds i8, ptr %15, i64 4
  %24 = load i32, ptr %23, align 4
  %25 = and i32 %24, -1008
  %26 = icmp eq i32 %25, 0
  br i1 %26, label %27, label %28

27:                                               ; preds = %22
  call void @gc_possible_root(ptr noundef nonnull %15) #30
  br label %28

28:                                               ; preds = %22, %27, %21
  store ptr null, ptr getelementptr inbounds (%struct._zend_executor_globals, ptr @executor_globals, i64 0, i32 50), align 8
  br label %29

29:                                               ; preds = %28, %14
  %30 = load i32, ptr %7, align 4
  %31 = icmp ne i32 %30, 0
  call void @llvm.assume(i1 %31)
  %32 = add i32 %30, -1
  store i32 %32, ptr %7, align 4
  %33 = icmp eq i32 %32, 0
  br i1 %33, label %34, label %35

34:                                               ; preds = %29
  call void @zend_objects_store_del(ptr noundef nonnull %7) #30
  br label %42

35:                                               ; preds = %29
  %36 = getelementptr inbounds i8, ptr %7, i64 4
  %37 = load i32, ptr %36, align 4
  %38 = and i32 %37, -1008
  %39 = icmp eq i32 %38, 0
  br i1 %39, label %40, label %42

40:                                               ; preds = %35
  call void @gc_possible_root(ptr noundef nonnull %7) #30
  br label %42

41:                                               ; preds = %6
  store ptr %7, ptr getelementptr inbounds (%struct._zend_executor_globals, ptr @executor_globals, i64 0, i32 50), align 8
  br label %42

42:                                               ; preds = %34, %40, %35, %41
  call void @zval_ptr_dtor(ptr noundef nonnull %1) #30
  br label %43

43:                                               ; preds = %0, %42
  ret void
}